; Function Attrs: mustprogress nounwind uwtable
define internal void @_ZZN32pxrInternal_v0_24__pxrReserved__8SdfLayer8_SetDataERKNS_9TfWeakPtrINS_15SdfAbstractDataEEEPKNS_13SdfSchemaBaseEEN14_SpecsToCreateD0Ev(ptr noundef nonnull align 8 dereferenceable(64) initializes((0, 8)) %0) unnamed_addr #4 align 2 personality ptr @__gxx_personality_v0 {
  store ptr getelementptr inbounds nuw inrange(-16, 32) (i8, ptr @_ZTVZN32pxrInternal_v0_24__pxrReserved__8SdfLayer8_SetDataERKNS_9TfWeakPtrINS_15SdfAbstractDataEEEPKNS_13SdfSchemaBaseEE14_SpecsToCreate, i64 16), ptr %0, align 8
  %2 = getelementptr inbounds nuw i8, ptr %0, i64 16
  %3 = getelementptr inbounds nuw i8, ptr %0, i64 32
  %4 = load ptr, ptr %3, align 8
  invoke void @_ZNSt8_Rb_treeIN32pxrInternal_v0_24__pxrReserved__7SdfPathES1_St9_IdentityIS1_ESt4lessIS1_ESaIS1_EE8_M_eraseEPSt13_Rb_tree_nodeIS1_E(ptr noundef nonnull align 8 dereferenceable(48) %2, ptr noundef %4)
          to label %_ZZN32pxrInternal_v0_24__pxrReserved__8SdfLayer8_SetDataERKNS_9TfWeakPtrINS_15SdfAbstractDataEEEPKNS_13SdfSchemaBaseEEN14_SpecsToCreateD2Ev.exit unwind label %5

5:                                                ; preds = %1
  %6 = landingpad { ptr, i32 }
          catch ptr null
  %7 = extractvalue { ptr, i32 } %6, 0
  tail call void @__clang_call_terminate(ptr %7) #32
  unreachable

_ZZN32pxrInternal_v0_24__pxrReserved__8SdfLayer8_SetDataERKNS_9TfWeakPtrINS_15SdfAbstractDataEEEPKNS_13SdfSchemaBaseEEN14_SpecsToCreateD2Ev.exit: ; preds = %1
  tail call void @_ZN32pxrInternal_v0_24__pxrReserved__26SdfAbstractDataSpecVisitorD2Ev(ptr noundef nonnull align 8 dereferenceable(64) %0) #33
  tail call void @_ZdlPvm(ptr noundef nonnull %0, i64 noundef 64) #35
  ret void
}